; Function Attrs: mustprogress nounwind uwtable
define hidden void @_ZN9metaspace25print_human_readable_sizeEP12outputStreammmi(ptr noundef %0, i64 noundef %1, i64 noundef %2, i32 noundef %3) local_unnamed_addr #0 {
  %5 = icmp eq i64 %2, 0
  br i1 %5, label %.lr.ph, label %tailrecurse._crit_edge

.lr.ph:                                           ; preds = %4
  %6 = icmp eq i64 %1, 0
  %.inv = icmp ult i64 %1, 1024
  %. = select i1 %.inv, i64 1, i64 1024
  %7 = add i64 %1, -1073741824
  %brmerge = icmp ult i64 %7, -1073741823
  %.mux = select i1 %6, i64 1, i64 1073741824
  %8 = add i64 %1, -1048576
  %brmerge65 = icmp ult i64 %8, -1048575
  %.mux.mux = select i1 %brmerge, i64 %.mux, i64 1048576
  %spec.select = select i1 %brmerge65, i64 %.mux.mux, i64 %.
  br label %tailrecurse._crit_edge

tailrecurse._crit_edge:                           ; preds = %.lr.ph, %4
  %.tr55.lcssa = phi i64 [ %2, %4 ], [ %spec.select, %.lr.ph ]
  %9 = icmp eq i32 %3, -1
  br i1 %9, label %10, label %26

10:                                               ; preds = %tailrecurse._crit_edge
  switch i64 %.tr55.lcssa, label %16 [
    i64 1, label %11
    i64 8, label %12
    i64 1073741824, label %15
    i64 1048576, label %14
    i64 1024, label %_ZN9metaspaceL22display_unit_for_scaleEm.exit
  ]

11:                                               ; preds = %10
  tail call void (ptr, ptr, ...) @_ZN12outputStream5printEPKcz(ptr noundef nonnull align 8 dereferenceable(56) %0, ptr noundef nonnull @.str.5, i64 noundef %1) #4
  br label %43

12:                                               ; preds = %10
  %13 = lshr i64 %1, 3
  tail call void (ptr, ptr, ...) @_ZN12outputStream5printEPKcz(ptr noundef nonnull align 8 dereferenceable(56) %0, ptr noundef nonnull @.str.6, i64 noundef %13) #4
  br label %43

14:                                               ; preds = %10
  br label %_ZN9metaspaceL22display_unit_for_scaleEm.exit

15:                                               ; preds = %10
  br label %_ZN9metaspaceL22display_unit_for_scaleEm.exit

16:                                               ; preds = %10
  %17 = load ptr, ptr @g_assert_poison, align 8
  store i8 88, ptr %17, align 1
  tail call void @_Z28report_should_not_reach_herePKci(ptr noundef nonnull @.str.31, i32 noundef 60) #5
  unreachable

_ZN9metaspaceL22display_unit_for_scaleEm.exit:    ; preds = %10, %14, %15
  %.0.i = phi ptr [ @.str.30, %15 ], [ @.str.29, %14 ], [ @.str.28, %10 ]
  %18 = uitofp i64 %1 to float
  %19 = uitofp nneg i64 %.tr55.lcssa to float
  %20 = fdiv float %18, %19
  %21 = icmp ne i64 %1, 0
  %22 = fcmp olt float %20, 0x3F847AE140000000
  %or.cond = and i1 %21, %22
  br i1 %or.cond, label %23, label %24

23:                                               ; preds = %_ZN9metaspaceL22display_unit_for_scaleEm.exit
  tail call void (ptr, ptr, ...) @_ZN12outputStream5printEPKcz(ptr noundef nonnull align 8 dereferenceable(56) %0, ptr noundef nonnull @.str.7, ptr noundef nonnull %.0.i) #4
  br label %43

24:                                               ; preds = %_ZN9metaspaceL22display_unit_for_scaleEm.exit
  %25 = fpext float %20 to double
  tail call void (ptr, ptr, ...) @_ZN12outputStream5printEPKcz(ptr noundef nonnull align 8 dereferenceable(56) %0, ptr noundef nonnull @.str.8, double noundef %25, ptr noundef nonnull %.0.i) #4
  br label %43

26:                                               ; preds = %tailrecurse._crit_edge
  switch i64 %.tr55.lcssa, label %32 [
    i64 1, label %27
    i64 8, label %28
    i64 1073741824, label %31
    i64 1048576, label %30
    i64 1024, label %_ZN9metaspaceL22display_unit_for_scaleEm.exit53
  ]

27:                                               ; preds = %26
  tail call void (ptr, ptr, ...) @_ZN12outputStream5printEPKcz(ptr noundef nonnull align 8 dereferenceable(56) %0, ptr noundef nonnull @.str.9, i32 noundef %3, i64 noundef %1) #4
  br label %43

28:                                               ; preds = %26
  %29 = lshr i64 %1, 3
  tail call void (ptr, ptr, ...) @_ZN12outputStream5printEPKcz(ptr noundef nonnull align 8 dereferenceable(56) %0, ptr noundef nonnull @.str.10, i32 noundef %3, i64 noundef %29) #4
  br label %43

30:                                               ; preds = %26
  br label %_ZN9metaspaceL22display_unit_for_scaleEm.exit53

31:                                               ; preds = %26
  br label %_ZN9metaspaceL22display_unit_for_scaleEm.exit53

32:                                               ; preds = %26
  %33 = load ptr, ptr @g_assert_poison, align 8
  store i8 88, ptr %33, align 1
  tail call void @_Z28report_should_not_reach_herePKci(ptr noundef nonnull @.str.31, i32 noundef 60) #5
  unreachable

_ZN9metaspaceL22display_unit_for_scaleEm.exit53:  ; preds = %26, %30, %31
  %.0.i52 = phi ptr [ @.str.30, %31 ], [ @.str.29, %30 ], [ @.str.28, %26 ]
  %34 = uitofp i64 %1 to float
  %35 = uitofp nneg i64 %.tr55.lcssa to float
  %36 = fdiv float %34, %35
  %37 = add nsw i32 %3, 3
  %38 = icmp ne i64 %1, 0
  %39 = fcmp olt float %36, 0x3F847AE140000000
  %or.cond3 = and i1 %38, %39
  br i1 %or.cond3, label %40, label %41

40:                                               ; preds = %_ZN9metaspaceL22display_unit_for_scaleEm.exit53
  tail call void (ptr, ptr, ...) @_ZN12outputStream5printEPKcz(ptr noundef nonnull align 8 dereferenceable(56) %0, ptr noundef nonnull @.str.11, i32 noundef %37, ptr noundef nonnull @.str.12, ptr noundef nonnull %.0.i52) #4
  br label %43

41:                                               ; preds = %_ZN9metaspaceL22display_unit_for_scaleEm.exit53
  %42 = fpext float %36 to double
  tail call void (ptr, ptr, ...) @_ZN12outputStream5printEPKcz(ptr noundef nonnull align 8 dereferenceable(56) %0, ptr noundef nonnull @.str.13, i32 noundef %37, double noundef %42, ptr noundef nonnull %.0.i52) #4
  br label %43

43:                                               ; preds = %27, %40, %41, %28, %11, %23, %24, %12
  ret void
}